; Function Attrs: mustprogress uwtable
define dso_local noundef ptr @_ZN11flatbuffers15ResizeAnyVectorERKN10reflection6SchemaEjPKNS_11VectorOfAnyEjjPSt6vectorIhSaIhEEPKNS0_6ObjectE(ptr noundef nonnull align 1 dereferenceable(1) %0, i32 noundef %1, ptr noundef %2, i32 noundef %3, i32 noundef %4, ptr noundef %5, ptr noundef %6) local_unnamed_addr #2 personality ptr @__gxx_personality_v0 {
  %8 = alloca %"class.flatbuffers::ResizeContext", align 8
  %9 = sub nsw i32 %1, %3
  %10 = mul nsw i32 %9, %4
  %11 = load ptr, ptr %5, align 8, !tbaa !70
  %12 = ptrtoint ptr %2 to i64
  %13 = ptrtoint ptr %11 to i64
  %14 = sub i64 %12, %13
  %15 = trunc i64 %14 to i32
  %16 = mul i32 %4, %3
  %17 = add i32 %16, 4
  %18 = add i32 %17, %15
  %.not = icmp eq i32 %10, 0
  br i1 %.not, label %47, label %19

19:                                               ; preds = %7
  %20 = icmp slt i32 %9, 0
  br i1 %20, label %21, label %28

21:                                               ; preds = %19
  %22 = sub i32 0, %10
  %23 = zext i32 %18 to i64
  %24 = getelementptr inbounds nuw i8, ptr %11, i64 %23
  %25 = zext i32 %22 to i64
  %26 = sub nsw i64 0, %25
  %27 = getelementptr inbounds i8, ptr %24, i64 %26
  tail call void @llvm.memset.p0.i64(ptr nonnull align 1 %27, i8 0, i64 %25, i1 false)
  br label %28

28:                                               ; preds = %21, %19
  call void @llvm.lifetime.start.p0(i64 56, ptr nonnull %8) #21
  call void @_ZN11flatbuffers13ResizeContextC2ERKN10reflection6SchemaEjiPSt6vectorIhSaIhEEPKNS1_6ObjectE(ptr noundef nonnull align 8 dereferenceable(56) %8, ptr noundef nonnull align 1 dereferenceable(1) %0, i32 noundef %18, i32 noundef %10, ptr noundef nonnull %5, ptr noundef %6)
  %29 = load ptr, ptr %5, align 8, !tbaa !70
  %30 = getelementptr inbounds i8, ptr %29, i64 %14
  store i32 %1, ptr %30, align 4, !tbaa !9
  %31 = icmp sgt i32 %9, 0
  br i1 %31, label %32, label %38

32:                                               ; preds = %28
  %33 = zext i32 %18 to i64
  %34 = getelementptr inbounds nuw i8, ptr %29, i64 %33
  %35 = zext nneg i32 %9 to i64
  %36 = zext i32 %4 to i64
  %37 = mul nuw nsw i64 %35, %36
  call void @llvm.memset.p0.i64(ptr align 1 %34, i8 0, i64 %37, i1 false)
  br label %38

38:                                               ; preds = %32, %28
  %39 = getelementptr inbounds nuw i8, ptr %8, i64 32
  %40 = load ptr, ptr %39, align 8, !tbaa !70
  %.not.i.i.i.i = icmp eq ptr %40, null
  br i1 %.not.i.i.i.i, label %_ZN11flatbuffers13ResizeContextD2Ev.exit, label %41

41:                                               ; preds = %38
  %42 = getelementptr inbounds nuw i8, ptr %8, i64 48
  %43 = load ptr, ptr %42, align 8, !tbaa !72
  %44 = ptrtoint ptr %43 to i64
  %45 = ptrtoint ptr %40 to i64
  %46 = sub i64 %44, %45
  call void @_ZdlPvm(ptr noundef nonnull %40, i64 noundef %46) #23
  br label %_ZN11flatbuffers13ResizeContextD2Ev.exit

_ZN11flatbuffers13ResizeContextD2Ev.exit:         ; preds = %38, %41
  call void @llvm.lifetime.end.p0(i64 56, ptr nonnull %8) #21
  %.pre = load ptr, ptr %5, align 8, !tbaa !70
  br label %47

47:                                               ; preds = %_ZN11flatbuffers13ResizeContextD2Ev.exit, %7
  %48 = phi ptr [ %.pre, %_ZN11flatbuffers13ResizeContextD2Ev.exit ], [ %11, %7 ]
  %49 = zext i32 %18 to i64
  %50 = getelementptr inbounds nuw i8, ptr %48, i64 %49
  ret ptr %50
}